; Function Attrs: mustprogress uwtable
define internal fastcc void @"_ZSt22__stable_sort_adaptiveIN9__gnu_cxx17__normal_iteratorIPN5arrow7compute10ExpressionESt6vectorIS4_SaIS4_EEEES5_lNS0_5__ops15_Iter_comp_iterIZZNS3_12CanonicalizeES4_PNS3_11ExecContextEENK3$_1clES4_E3$_0EEEvT_SH_T0_T1_T2_"(ptr %__first.coerce, ptr %__last.coerce, ptr noundef %__buffer, i64 noundef %__buffer_size) unnamed_addr #0 {
entry:
  %sub.ptr.lhs.cast.i = ptrtoint ptr %__last.coerce to i64
  %sub.ptr.rhs.cast.i = ptrtoint ptr %__first.coerce to i64
  %sub.ptr.sub.i = sub i64 %sub.ptr.lhs.cast.i, %sub.ptr.rhs.cast.i
  %sub.ptr.div.i = ashr exact i64 %sub.ptr.sub.i, 4
  %add = add nsw i64 %sub.ptr.div.i, 1
  %div = sdiv i64 %add, 2
  %add.ptr.i = getelementptr inbounds %"class.arrow::compute::Expression", ptr %__first.coerce, i64 %div
  %cmp = icmp sgt i64 %div, %__buffer_size
  br i1 %cmp, label %if.then, label %if.else

if.then:                                          ; preds = %entry
  tail call fastcc void @"_ZSt22__stable_sort_adaptiveIN9__gnu_cxx17__normal_iteratorIPN5arrow7compute10ExpressionESt6vectorIS4_SaIS4_EEEES5_lNS0_5__ops15_Iter_comp_iterIZZNS3_12CanonicalizeES4_PNS3_11ExecContextEENK3$_1clES4_E3$_0EEEvT_SH_T0_T1_T2_"(ptr %__first.coerce, ptr %add.ptr.i, ptr noundef %__buffer, i64 noundef %__buffer_size)
  tail call fastcc void @"_ZSt22__stable_sort_adaptiveIN9__gnu_cxx17__normal_iteratorIPN5arrow7compute10ExpressionESt6vectorIS4_SaIS4_EEEES5_lNS0_5__ops15_Iter_comp_iterIZZNS3_12CanonicalizeES4_PNS3_11ExecContextEENK3$_1clES4_E3$_0EEEvT_SH_T0_T1_T2_"(ptr %add.ptr.i, ptr %__last.coerce, ptr noundef %__buffer, i64 noundef %__buffer_size)
  br label %if.end

if.else:                                          ; preds = %entry
  tail call fastcc void @"_ZSt24__merge_sort_with_bufferIN9__gnu_cxx17__normal_iteratorIPN5arrow7compute10ExpressionESt6vectorIS4_SaIS4_EEEES5_NS0_5__ops15_Iter_comp_iterIZZNS3_12CanonicalizeES4_PNS3_11ExecContextEENK3$_1clES4_E3$_0EEEvT_SH_T0_T1_"(ptr %__first.coerce, ptr %add.ptr.i, ptr noundef %__buffer)
  tail call fastcc void @"_ZSt24__merge_sort_with_bufferIN9__gnu_cxx17__normal_iteratorIPN5arrow7compute10ExpressionESt6vectorIS4_SaIS4_EEEES5_NS0_5__ops15_Iter_comp_iterIZZNS3_12CanonicalizeES4_PNS3_11ExecContextEENK3$_1clES4_E3$_0EEEvT_SH_T0_T1_"(ptr %add.ptr.i, ptr %__last.coerce, ptr noundef %__buffer)
  br label %if.end

if.end:                                           ; preds = %if.else, %if.then
  %sub.ptr.lhs.cast.i13 = ptrtoint ptr %add.ptr.i to i64
  %sub.ptr.sub.i19 = sub i64 %sub.ptr.lhs.cast.i, %sub.ptr.lhs.cast.i13
  %sub.ptr.div.i20 = ashr exact i64 %sub.ptr.sub.i19, 4
  tail call fastcc void @"_ZSt16__merge_adaptiveIN9__gnu_cxx17__normal_iteratorIPN5arrow7compute10ExpressionESt6vectorIS4_SaIS4_EEEElS5_NS0_5__ops15_Iter_comp_iterIZZNS3_12CanonicalizeES4_PNS3_11ExecContextEENK3$_1clES4_E3$_0EEEvT_SH_SH_T0_SI_T1_SI_T2_"(ptr %__first.coerce, ptr %add.ptr.i, ptr %__last.coerce, i64 noundef %div, i64 noundef %sub.ptr.div.i20, ptr noundef %__buffer, i64 noundef %__buffer_size)
  ret void
}